   1               		.file	"queue.c"
   2               	__SREG__ = 0x3f
   3               	__SP_H__ = 0x3e
   4               	__SP_L__ = 0x3d
   5               	__CCP__  = 0x34
   6               	__tmp_reg__ = 0
   7               	__zero_reg__ = 1
  15               	.Ltext0:
  16               	.global	uxQueueMessagesWaiting
  18               	uxQueueMessagesWaiting:
  19               	.LFB8:
  20               	.LM1:
  21               	.LVL0:
  22               	/* prologue: function */
  23               	/* frame size = 0 */
  24 0000 FC01      		movw r30,r24
  25               	.LM2:
  26               	/* #APP */
  27               	 ;  1173 "../../Source/queue.c" 1
  28 0002 0FB6      		in		__tmp_reg__, __SREG__
  29               	 ;  0 "" 2
  30               	 ;  1173 "../../Source/queue.c" 1
  31 0004 F894      		cli
  32               	 ;  0 "" 2
  33               	 ;  1173 "../../Source/queue.c" 1
  34 0006 0F92      		push	__tmp_reg__
  35               	 ;  0 "" 2
  36               	.LM3:
  37               	/* #NOAPP */
  38 0008 828D      		ldd r24,Z+26
  39               	.LVL1:
  40               	.LM4:
  41               	/* #APP */
  42               	 ;  1175 "../../Source/queue.c" 1
  43 000a 0F90      		pop		__tmp_reg__
  44               	 ;  0 "" 2
  45               	 ;  1175 "../../Source/queue.c" 1
  46 000c 0FBE      		out		__SREG__, __tmp_reg__
  47               	 ;  0 "" 2
  48               	.LVL2:
  49               	/* epilogue start */
  50               	.LM5:
  51               	/* #NOAPP */
  52 000e 0895      		ret
  53               	.LFE8:
  55               	.global	uxQueueMessagesWaitingFromISR
  57               	uxQueueMessagesWaitingFromISR:
  58               	.LFB9:
  59               	.LM6:
  60               	.LVL3:
  61               	/* prologue: function */
  62               	/* frame size = 0 */
  63 0010 FC01      		movw r30,r24
  64               	.LM7:
  65 0012 828D      		ldd r24,Z+26
  66               	.LVL4:
  67               	.LVL5:
  68               	/* epilogue start */
  69               	.LM8:
  70 0014 0895      		ret
  71               	.LFE9:
  73               	.global	xQueueIsQueueEmptyFromISR
  75               	xQueueIsQueueEmptyFromISR:
  76               	.LFB15:
  77               	.LM9:
  78               	.LVL6:
  79               	/* prologue: function */
  80               	/* frame size = 0 */
  81 0016 FC01      		movw r30,r24
  82               	.LM10:
  83 0018 828D      		ldd r24,Z+26
  84               	.LVL7:
  85 001a 90E0      		ldi r25,lo8(0)
  86 001c 8823      		tst r24
  87 001e 01F4      		brne .L6
  88 0020 91E0      		ldi r25,lo8(1)
  89               	.L6:
  90               	.LM11:
  91 0022 892F      		mov r24,r25
  92               	/* epilogue start */
  93 0024 0895      		ret
  94               	.LFE15:
  96               	.global	xQueueIsQueueFullFromISR
  98               	xQueueIsQueueFullFromISR:
  99               	.LFB17:
 100               	.LM12:
 101               	.LVL8:
 102               	/* prologue: function */
 103               	/* frame size = 0 */
 104 0026 FC01      		movw r30,r24
 105               	.LM13:
 106 0028 928D      		ldd r25,Z+26
 107 002a 20E0      		ldi r18,lo8(0)
 108 002c 838D      		ldd r24,Z+27
 109               	.LVL9:
 110 002e 9817      		cp r25,r24
 111 0030 01F4      		brne .L9
 112 0032 21E0      		ldi r18,lo8(1)
 113               	.L9:
 114               	.LM14:
 115 0034 822F      		mov r24,r18
 116               	/* epilogue start */
 117 0036 0895      		ret
 118               	.LFE17:
 121               	prvCopyDataToQueue:
 122               	.LFB11:
 123               	.LM15:
 124               	.LVL10:
 125 0038 CF93      		push r28
 126 003a DF93      		push r29
 127               	/* prologue: function */
 128               	/* frame size = 0 */
 129 003c EC01      		movw r28,r24
 130 003e 842F      		mov r24,r20
 131               	.LVL11:
 132               	.LM16:
 133 0040 4C8D      		ldd r20,Y+28
 134               	.LVL12:
 135 0042 4423      		tst r20
 136 0044 01F0      		breq .L12
 137               	.LM17:
 138 0046 8823      		tst r24
 139 0048 01F4      		brne .L13
 140               	.LM18:
 141 004a 8C81      		ldd r24,Y+4
 142               	.LVL13:
 143 004c 9D81      		ldd r25,Y+5
 144 004e 50E0      		ldi r21,lo8(0)
 145 0050 0E94 0000 		call memcpy
 146               	.LVL14:
 147               	.LM19:
 148 0054 8C8D      		ldd r24,Y+28
 149 0056 2C81      		ldd r18,Y+4
 150 0058 3D81      		ldd r19,Y+5
 151 005a 280F      		add r18,r24
 152 005c 311D      		adc r19,__zero_reg__
 153 005e 3D83      		std Y+5,r19
 154 0060 2C83      		std Y+4,r18
 155               	.LM20:
 156 0062 8A81      		ldd r24,Y+2
 157 0064 9B81      		ldd r25,Y+3
 158 0066 2817      		cp r18,r24
 159 0068 3907      		cpc r19,r25
 160 006a 00F0      		brlo .L12
 161               	.LM21:
 162 006c 8881      		ld r24,Y
 163 006e 9981      		ldd r25,Y+1
 164 0070 9D83      		std Y+5,r25
 165 0072 8C83      		std Y+4,r24
 166 0074 00C0      		rjmp .L12
 167               	.LVL15:
 168               	.L13:
 169               	.LM22:
 170 0076 8E81      		ldd r24,Y+6
 171               	.LVL16:
 172 0078 9F81      		ldd r25,Y+7
 173 007a 50E0      		ldi r21,lo8(0)
 174 007c 0E94 0000 		call memcpy
 175               	.LVL17:
 176               	.LM23:
 177 0080 8C8D      		ldd r24,Y+28
 178 0082 90E0      		ldi r25,lo8(0)
 179 0084 4427      		clr r20
 180 0086 5527      		clr r21
 181 0088 481B      		sub r20,r24
 182 008a 590B      		sbc r21,r25
 183 008c 8E81      		ldd r24,Y+6
 184 008e 9F81      		ldd r25,Y+7
 185 0090 840F      		add r24,r20
 186 0092 951F      		adc r25,r21
 187 0094 9F83      		std Y+7,r25
 188 0096 8E83      		std Y+6,r24
 189               	.LM24:
 190 0098 2881      		ld r18,Y
 191 009a 3981      		ldd r19,Y+1
 192 009c 8217      		cp r24,r18
 193 009e 9307      		cpc r25,r19
 194 00a0 00F4      		brsh .L12
 195               	.LM25:
 196 00a2 8A81      		ldd r24,Y+2
 197 00a4 9B81      		ldd r25,Y+3
 198 00a6 840F      		add r24,r20
 199 00a8 951F      		adc r25,r21
 200 00aa 9F83      		std Y+7,r25
 201 00ac 8E83      		std Y+6,r24
 202               	.LVL18:
 203               	.L12:
 204               	.LM26:
 205 00ae 8A8D      		ldd r24,Y+26
 206               	.LVL19:
 207 00b0 8F5F      		subi r24,lo8(-(1))
 208 00b2 8A8F      		std Y+26,r24
 209               	/* epilogue start */
 210               	.LM27:
 211 00b4 DF91      		pop r29
 212 00b6 CF91      		pop r28
 213               	.LVL20:
 214 00b8 0895      		ret
 215               	.LFE11:
 217               	.global	xQueueCRReceiveFromISR
 219               	xQueueCRReceiveFromISR:
 220               	.LFB21:
 221               	.LM28:
 222               	.LVL21:
 223 00ba 0F93      		push r16
 224 00bc 1F93      		push r17
 225 00be CF93      		push r28
 226 00c0 DF93      		push r29
 227               	/* prologue: function */
 228               	/* frame size = 0 */
 229 00c2 EC01      		movw r28,r24
 230 00c4 FB01      		movw r30,r22
 231               	.LVL22:
 232 00c6 8A01      		movw r16,r20
 233               	.LM29:
 234 00c8 8A8D      		ldd r24,Y+26
 235               	.LVL23:
 236 00ca 8823      		tst r24
 237 00cc 01F0      		breq .L19
 238               	.LVL24:
 239               	.LM30:
 240 00ce 8C8D      		ldd r24,Y+28
 241 00d0 2E81      		ldd r18,Y+6
 242 00d2 3F81      		ldd r19,Y+7
 243 00d4 280F      		add r18,r24
 244 00d6 311D      		adc r19,__zero_reg__
 245 00d8 3F83      		std Y+7,r19
 246 00da 2E83      		std Y+6,r18
 247               	.LM31:
 248 00dc 8A81      		ldd r24,Y+2
 249 00de 9B81      		ldd r25,Y+3
 250 00e0 2817      		cp r18,r24
 251 00e2 3907      		cpc r19,r25
 252 00e4 00F0      		brlo .L20
 253               	.LM32:
 254 00e6 8881      		ld r24,Y
 255 00e8 9981      		ldd r25,Y+1
 256 00ea 9F83      		std Y+7,r25
 257 00ec 8E83      		std Y+6,r24
 258               	.L20:
 259               	.LM33:
 260 00ee 8A8D      		ldd r24,Y+26
 261 00f0 8150      		subi r24,lo8(-(-1))
 262 00f2 8A8F      		std Y+26,r24
 263               	.LM34:
 264 00f4 4C8D      		ldd r20,Y+28
 265 00f6 6E81      		ldd r22,Y+6
 266 00f8 7F81      		ldd r23,Y+7
 267 00fa CF01      		movw r24,r30
 268 00fc 50E0      		ldi r21,lo8(0)
 269 00fe 0E94 0000 		call memcpy
 270               	.LM35:
 271 0102 F801      		movw r30,r16
 272 0104 8081      		ld r24,Z
 273 0106 8823      		tst r24
 274 0108 01F4      		brne .L22
 275               	.LM36:
 276 010a 8885      		ldd r24,Y+8
 277 010c 8823      		tst r24
 278 010e 01F0      		breq .L22
 279               	.LM37:
 280 0110 CE01      		movw r24,r28
 281 0112 0896      		adiw r24,8
 282 0114 0E94 0000 		call xCoRoutineRemoveFromEventList
 283 0118 8823      		tst r24
 284 011a 01F0      		breq .L22
 285               	.LM38:
 286 011c 81E0      		ldi r24,lo8(1)
 287 011e F801      		movw r30,r16
 288 0120 8083      		st Z,r24
 289 0122 00C0      		rjmp .L19
 290               	.L22:
 291 0124 81E0      		ldi r24,lo8(1)
 292               	.LVL25:
 293               	.L19:
 294               	.LVL26:
 295               	/* epilogue start */
 296               	.LM39:
 297 0126 DF91      		pop r29
 298 0128 CF91      		pop r28
 299               	.LVL27:
 300 012a 1F91      		pop r17
 301 012c 0F91      		pop r16
 302               	.LVL28:
 303 012e 0895      		ret
 304               	.LFE21:
 306               	.global	xQueueCRSendFromISR
 308               	xQueueCRSendFromISR:
 309               	.LFB20:
 310               	.LM40:
 311               	.LVL29:
 312 0130 1F93      		push r17
 313 0132 CF93      		push r28
 314 0134 DF93      		push r29
 315               	/* prologue: function */
 316               	/* frame size = 0 */
 317 0136 EC01      		movw r28,r24
 318 0138 142F      		mov r17,r20
 319               	.LM41:
 320 013a 9A8D      		ldd r25,Y+26
 321 013c 8B8D      		ldd r24,Y+27
 322               	.LVL30:
 323 013e 9817      		cp r25,r24
 324 0140 00F4      		brsh .L25
 325               	.LVL31:
 326               	.LM42:
 327 0142 CE01      		movw r24,r28
 328 0144 40E0      		ldi r20,lo8(0)
 329 0146 0E94 0000 		call prvCopyDataToQueue
 330               	.LVL32:
 331               	.LM43:
 332 014a 1123      		tst r17
 333 014c 01F4      		brne .L25
 334               	.LM44:
 335 014e 8989      		ldd r24,Y+17
 336 0150 8823      		tst r24
 337 0152 01F0      		breq .L25
 338               	.LM45:
 339 0154 CE01      		movw r24,r28
 340 0156 4196      		adiw r24,17
 341 0158 0E94 0000 		call xCoRoutineRemoveFromEventList
 342 015c 482F      		mov r20,r24
 343 015e 8111      		cpse r24,__zero_reg__
 344 0160 41E0      		ldi r20,lo8(1)
 345               	.L26:
 346 0162 142F      		mov r17,r20
 347               	.LVL33:
 348               	.L25:
 349               	.LM46:
 350 0164 812F      		mov r24,r17
 351               	/* epilogue start */
 352 0166 DF91      		pop r29
 353 0168 CF91      		pop r28
 354               	.LVL34:
 355 016a 1F91      		pop r17
 356               	.LVL35:
 357 016c 0895      		ret
 358               	.LFE20:
 360               	.global	xQueueCRReceive
 362               	xQueueCRReceive:
 363               	.LFB19:
 364               	.LM47:
 365               	.LVL36:
 366 016e CF93      		push r28
 367 0170 DF93      		push r29
 368               	/* prologue: function */
 369               	/* frame size = 0 */
 370 0172 EC01      		movw r28,r24
 371 0174 FB01      		movw r30,r22
 372               	.LVL37:
 373               	.LM48:
 374               	/* #APP */
 375               	 ;  1472 "../../Source/queue.c" 1
 376 0176 F894      		cli
 377               	 ;  0 "" 2
 378               	.LM49:
 379               	/* #NOAPP */
 380 0178 8A8D      		ldd r24,Y+26
 381               	.LVL38:
 382 017a 8823      		tst r24
 383 017c 01F4      		brne .L29
 384               	.LM50:
 385 017e 4115      		cp r20,__zero_reg__
 386 0180 5105      		cpc r21,__zero_reg__
 387 0182 01F0      		breq .L30
 388               	.LM51:
 389 0184 6196      		adiw r28,17
 390 0186 CA01      		movw r24,r20
 391 0188 BE01      		movw r22,r28
 392 018a 0E94 0000 		call vCoRoutineAddToDelayedList
 393               	.LVL39:
 394               	.LM52:
 395               	/* #APP */
 396               	 ;  1483 "../../Source/queue.c" 1
 397 018e 7894      		sei
 398               	 ;  0 "" 2
 399               	/* #NOAPP */
 400 0190 8CEF      		ldi r24,lo8(-4)
 401               	.LVL40:
 402 0192 00C0      		rjmp .L31
 403               	.LVL41:
 404               	.L30:
 405               	.LM53:
 406               	/* #APP */
 407               	 ;  1488 "../../Source/queue.c" 1
 408 0194 7894      		sei
 409               	 ;  0 "" 2
 410               	/* #NOAPP */
 411 0196 80E0      		ldi r24,lo8(0)
 412               	.LVL42:
 413 0198 00C0      		rjmp .L31
 414               	.LVL43:
 415               	.L29:
 416               	.LM54:
 417               	/* #APP */
 418               	 ;  1493 "../../Source/queue.c" 1
 419 019a 7894      		sei
 420               	 ;  0 "" 2
 421               	.LM55:
 422               	 ;  1495 "../../Source/queue.c" 1
 423 019c 0000      		nop
 424               	 ;  0 "" 2
 425               	.LM56:
 426               	 ;  1497 "../../Source/queue.c" 1
 427 019e F894      		cli
 428               	 ;  0 "" 2
 429               	.LM57:
 430               	/* #NOAPP */
 431 01a0 8A8D      		ldd r24,Y+26
 432 01a2 8823      		tst r24
 433 01a4 01F0      		breq .L33
 434               	.LM58:
 435 01a6 8C8D      		ldd r24,Y+28
 436 01a8 2E81      		ldd r18,Y+6
 437 01aa 3F81      		ldd r19,Y+7
 438 01ac 280F      		add r18,r24
 439 01ae 311D      		adc r19,__zero_reg__
 440 01b0 3F83      		std Y+7,r19
 441 01b2 2E83      		std Y+6,r18
 442               	.LM59:
 443 01b4 8A81      		ldd r24,Y+2
 444 01b6 9B81      		ldd r25,Y+3
 445 01b8 2817      		cp r18,r24
 446 01ba 3907      		cpc r19,r25
 447 01bc 00F0      		brlo .L34
 448               	.LM60:
 449 01be 8881      		ld r24,Y
 450 01c0 9981      		ldd r25,Y+1
 451 01c2 9F83      		std Y+7,r25
 452 01c4 8E83      		std Y+6,r24
 453               	.L34:
 454               	.LM61:
 455 01c6 8A8D      		ldd r24,Y+26
 456 01c8 8150      		subi r24,lo8(-(-1))
 457 01ca 8A8F      		std Y+26,r24
 458               	.LM62:
 459 01cc 4C8D      		ldd r20,Y+28
 460               	.LVL44:
 461 01ce 6E81      		ldd r22,Y+6
 462 01d0 7F81      		ldd r23,Y+7
 463 01d2 CF01      		movw r24,r30
 464 01d4 50E0      		ldi r21,lo8(0)
 465 01d6 0E94 0000 		call memcpy
 466               	.LM63:
 467 01da 8885      		ldd r24,Y+8
 468 01dc 8823      		tst r24
 469 01de 01F0      		breq .L36
 470               	.LM64:
 471 01e0 CE01      		movw r24,r28
 472 01e2 0896      		adiw r24,8
 473 01e4 0E94 0000 		call xCoRoutineRemoveFromEventList
 474 01e8 8823      		tst r24
 475 01ea 01F0      		breq .L36
 476 01ec 8BEF      		ldi r24,lo8(-5)
 477               	.LVL45:
 478 01ee 00C0      		rjmp .L33
 479               	.LVL46:
 480               	.L36:
 481 01f0 81E0      		ldi r24,lo8(1)
 482               	.LVL47:
 483               	.L33:
 484               	.LM65:
 485               	/* #APP */
 486               	 ;  1530 "../../Source/queue.c" 1
 487 01f2 7894      		sei
 488               	 ;  0 "" 2
 489               	/* #NOAPP */
 490               	.L31:
 491               	.LVL48:
 492               	/* epilogue start */
 493               	.LM66:
 494 01f4 DF91      		pop r29
 495 01f6 CF91      		pop r28
 496               	.LVL49:
 497 01f8 0895      		ret
 498               	.LFE19:
 500               	.global	xQueueCRSend
 502               	xQueueCRSend:
 503               	.LFB18:
 504               	.LM67:
 505               	.LVL50:
 506 01fa CF93      		push r28
 507 01fc DF93      		push r29
 508               	/* prologue: function */
 509               	/* frame size = 0 */
 510 01fe EC01      		movw r28,r24
 511               	.LM68:
 512               	/* #APP */
 513               	 ;  1404 "../../Source/queue.c" 1
 514 0200 F894      		cli
 515               	 ;  0 "" 2
 516               	/* #NOAPP */
 517               	.LBB12:
 518               	.LBB13:
 519               	.LM69:
 520               	/* #APP */
 521               	 ;  1377 "../../Source/queue.c" 1
 522 0202 0FB6      		in		__tmp_reg__, __SREG__
 523               	 ;  0 "" 2
 524               	 ;  1377 "../../Source/queue.c" 1
 525 0204 F894      		cli
 526               	 ;  0 "" 2
 527               	 ;  1377 "../../Source/queue.c" 1
 528 0206 0F92      		push	__tmp_reg__
 529               	 ;  0 "" 2
 530               	.LM70:
 531               	/* #NOAPP */
 532 0208 8A8D      		ldd r24,Y+26
 533               	.LVL51:
 534 020a 9B8D      		ldd r25,Y+27
 535               	.LM71:
 536               	/* #APP */
 537               	 ;  1379 "../../Source/queue.c" 1
 538 020c 0F90      		pop		__tmp_reg__
 539               	 ;  0 "" 2
 540               	 ;  1379 "../../Source/queue.c" 1
 541 020e 0FBE      		out		__SREG__, __tmp_reg__
 542               	 ;  0 "" 2
 543               	/* #NOAPP */
 544               	.LBE13:
 545               	.LBE12:
 546               	.LM72:
 547 0210 8917      		cp r24,r25
 548 0212 01F4      		brne .L39
 549               	.LM73:
 550 0214 4115      		cp r20,__zero_reg__
 551 0216 5105      		cpc r21,__zero_reg__
 552 0218 01F0      		breq .L40
 553               	.LM74:
 554 021a 2896      		adiw r28,8
 555 021c CA01      		movw r24,r20
 556 021e BE01      		movw r22,r28
 557               	.LVL52:
 558 0220 0E94 0000 		call vCoRoutineAddToDelayedList
 559               	.LVL53:
 560               	.LM75:
 561               	/* #APP */
 562               	 ;  1415 "../../Source/queue.c" 1
 563 0224 7894      		sei
 564               	 ;  0 "" 2
 565               	/* #NOAPP */
 566 0226 8CEF      		ldi r24,lo8(-4)
 567               	.LVL54:
 568 0228 00C0      		rjmp .L41
 569               	.LVL55:
 570               	.L40:
 571               	.LM76:
 572               	/* #APP */
 573               	 ;  1420 "../../Source/queue.c" 1
 574 022a 7894      		sei
 575               	 ;  0 "" 2
 576               	/* #NOAPP */
 577 022c 80E0      		ldi r24,lo8(0)
 578               	.LVL56:
 579 022e 00C0      		rjmp .L41
 580               	.LVL57:
 581               	.L39:
 582               	.LM77:
 583               	/* #APP */
 584               	 ;  1425 "../../Source/queue.c" 1
 585 0230 7894      		sei
 586               	 ;  0 "" 2
 587               	.LM78:
 588               	 ;  1427 "../../Source/queue.c" 1
 589 0232 0000      		nop
 590               	 ;  0 "" 2
 591               	.LM79:
 592               	 ;  1429 "../../Source/queue.c" 1
 593 0234 F894      		cli
 594               	 ;  0 "" 2
 595               	.LM80:
 596               	/* #NOAPP */
 597 0236 8A8D      		ldd r24,Y+26
 598 0238 8917      		cp r24,r25
 599 023a 00F0      		brlo .L42
 600 023c 80E0      		ldi r24,lo8(0)
 601               	.LVL58:
 602 023e 00C0      		rjmp .L43
 603               	.LVL59:
 604               	.L42:
 605               	.LM81:
 606 0240 CE01      		movw r24,r28
 607 0242 40E0      		ldi r20,lo8(0)
 608               	.LVL60:
 609 0244 0E94 0000 		call prvCopyDataToQueue
 610               	.LVL61:
 611               	.LM82:
 612 0248 8989      		ldd r24,Y+17
 613 024a 8823      		tst r24
 614 024c 01F0      		breq .L44
 615               	.LM83:
 616 024e CE01      		movw r24,r28
 617 0250 4196      		adiw r24,17
 618 0252 0E94 0000 		call xCoRoutineRemoveFromEventList
 619 0256 8823      		tst r24
 620 0258 01F0      		breq .L44
 621 025a 8BEF      		ldi r24,lo8(-5)
 622               	.LVL62:
 623 025c 00C0      		rjmp .L43
 624               	.LVL63:
 625               	.L44:
 626 025e 81E0      		ldi r24,lo8(1)
 627               	.LVL64:
 628               	.L43:
 629               	.LM84:
 630               	/* #APP */
 631               	 ;  1457 "../../Source/queue.c" 1
 632 0260 7894      		sei
 633               	 ;  0 "" 2
 634               	/* #NOAPP */
 635               	.L41:
 636               	.LVL65:
 637               	/* epilogue start */
 638               	.LM85:
 639 0262 DF91      		pop r29
 640 0264 CF91      		pop r28
 641               	.LVL66:
 642 0266 0895      		ret
 643               	.LFE18:
 645               	.global	vQueueDelete
 647               	vQueueDelete:
 648               	.LFB10:
 649               	.LM86:
 650               	.LVL67:
 651 0268 0F93      		push r16
 652 026a 1F93      		push r17
 653               	/* prologue: function */
 654               	/* frame size = 0 */
 655 026c 8C01      		movw r16,r24
 656               	.LM87:
 657 026e FC01      		movw r30,r24
 658 0270 8081      		ld r24,Z
 659 0272 9181      		ldd r25,Z+1
 660               	.LVL68:
 661 0274 0E94 0000 		call vPortFree
 662               	.LM88:
 663 0278 C801      		movw r24,r16
 664 027a 0E94 0000 		call vPortFree
 665               	/* epilogue start */
 666               	.LM89:
 667 027e 1F91      		pop r17
 668 0280 0F91      		pop r16
 669               	.LVL69:
 670 0282 0895      		ret
 671               	.LFE10:
 673               	.global	xQueueReceiveFromISR
 675               	xQueueReceiveFromISR:
 676               	.LFB7:
 677               	.LM90:
 678               	.LVL70:
 679 0284 0F93      		push r16
 680 0286 1F93      		push r17
 681 0288 CF93      		push r28
 682 028a DF93      		push r29
 683               	/* prologue: function */
 684               	/* frame size = 0 */
 685 028c EC01      		movw r28,r24
 686 028e FB01      		movw r30,r22
 687               	.LVL71:
 688 0290 8A01      		movw r16,r20
 689               	.LM91:
 690 0292 8A8D      		ldd r24,Y+26
 691               	.LVL72:
 692 0294 8823      		tst r24
 693 0296 01F0      		breq .L50
 694               	.LVL73:
 695               	.LBB14:
 696               	.LBB15:
 697               	.LM92:
 698 0298 4881      		ld r20,Y
 699 029a 5981      		ldd r21,Y+1
 700 029c 4115      		cp r20,__zero_reg__
 701 029e 5105      		cpc r21,__zero_reg__
 702 02a0 01F0      		breq .L51
 703               	.LM93:
 704 02a2 8C8D      		ldd r24,Y+28
 705 02a4 2E81      		ldd r18,Y+6
 706 02a6 3F81      		ldd r19,Y+7
 707 02a8 280F      		add r18,r24
 708 02aa 311D      		adc r19,__zero_reg__
 709 02ac 3F83      		std Y+7,r19
 710 02ae 2E83      		std Y+6,r18
 711               	.LM94:
 712 02b0 8A81      		ldd r24,Y+2
 713 02b2 9B81      		ldd r25,Y+3
 714 02b4 2817      		cp r18,r24
 715 02b6 3907      		cpc r19,r25
 716 02b8 00F0      		brlo .L52
 717               	.LM95:
 718 02ba 5F83      		std Y+7,r21
 719 02bc 4E83      		std Y+6,r20
 720               	.L52:
 721               	.LM96:
 722 02be 4C8D      		ldd r20,Y+28
 723 02c0 6E81      		ldd r22,Y+6
 724 02c2 7F81      		ldd r23,Y+7
 725 02c4 CF01      		movw r24,r30
 726 02c6 50E0      		ldi r21,lo8(0)
 727 02c8 0E94 0000 		call memcpy
 728               	.L51:
 729               	.LBE15:
 730               	.LBE14:
 731               	.LM97:
 732 02cc 8A8D      		ldd r24,Y+26
 733 02ce 8150      		subi r24,lo8(-(-1))
 734 02d0 8A8F      		std Y+26,r24
 735               	.LM98:
 736 02d2 8D8D      		ldd r24,Y+29
 737 02d4 8F3F      		cpi r24,lo8(-1)
 738 02d6 01F4      		brne .L54
 739               	.LM99:
 740 02d8 8885      		ldd r24,Y+8
 741 02da 8823      		tst r24
 742 02dc 01F0      		breq .L55
 743               	.LM100:
 744 02de CE01      		movw r24,r28
 745 02e0 0896      		adiw r24,8
 746 02e2 0E94 0000 		call xTaskRemoveFromEventList
 747 02e6 8823      		tst r24
 748 02e8 01F0      		breq .L55
 749               	.LM101:
 750 02ea 0115      		cp r16,__zero_reg__
 751 02ec 1105      		cpc r17,__zero_reg__
 752 02ee 01F0      		breq .L55
 753               	.LM102:
 754 02f0 81E0      		ldi r24,lo8(1)
 755 02f2 F801      		movw r30,r16
 756 02f4 8083      		st Z,r24
 757 02f6 00C0      		rjmp .L50
 758               	.L54:
 759               	.LM103:
 760 02f8 8D8D      		ldd r24,Y+29
 761 02fa 8F5F      		subi r24,lo8(-(1))
 762 02fc 8D8F      		std Y+29,r24
 763               	.L55:
 764 02fe 81E0      		ldi r24,lo8(1)
 765               	.LVL74:
 766               	.L50:
 767               	.LVL75:
 768               	/* epilogue start */
 769               	.LM104:
 770 0300 DF91      		pop r29
 771 0302 CF91      		pop r28
 772               	.LVL76:
 773 0304 1F91      		pop r17
 774 0306 0F91      		pop r16
 775               	.LVL77:
 776 0308 0895      		ret
 777               	.LFE7:
 779               	.global	xQueueGenericSendFromISR
 781               	xQueueGenericSendFromISR:
 782               	.LFB5:
 783               	.LM105:
 784               	.LVL78:
 785 030a 0F93      		push r16
 786 030c 1F93      		push r17
 787 030e CF93      		push r28
 788 0310 DF93      		push r29
 789               	/* prologue: function */
 790               	/* frame size = 0 */
 791 0312 EC01      		movw r28,r24
 792 0314 8A01      		movw r16,r20
 793               	.LM106:
 794 0316 9A8D      		ldd r25,Y+26
 795 0318 8B8D      		ldd r24,Y+27
 796               	.LVL79:
 797 031a 9817      		cp r25,r24
 798 031c 00F0      		brlo .L58
 799               	.LVL80:
 800 031e 80E0      		ldi r24,lo8(0)
 801               	.LVL81:
 802 0320 00C0      		rjmp .L59
 803               	.LVL82:
 804               	.L58:
 805               	.LM107:
 806 0322 CE01      		movw r24,r28
 807 0324 422F      		mov r20,r18
 808 0326 0E94 0000 		call prvCopyDataToQueue
 809               	.LVL83:
 810               	.LM108:
 811 032a 8E8D      		ldd r24,Y+30
 812 032c 8F3F      		cpi r24,lo8(-1)
 813 032e 01F4      		brne .L60
 814               	.LM109:
 815 0330 8989      		ldd r24,Y+17
 816 0332 8823      		tst r24
 817 0334 01F0      		breq .L61
 818               	.LM110:
 819 0336 CE01      		movw r24,r28
 820 0338 4196      		adiw r24,17
 821 033a 0E94 0000 		call xTaskRemoveFromEventList
 822 033e 8823      		tst r24
 823 0340 01F0      		breq .L61
 824               	.LM111:
 825 0342 0115      		cp r16,__zero_reg__
 826 0344 1105      		cpc r17,__zero_reg__
 827 0346 01F0      		breq .L61
 828               	.LM112:
 829 0348 81E0      		ldi r24,lo8(1)
 830 034a F801      		movw r30,r16
 831 034c 8083      		st Z,r24
 832 034e 00C0      		rjmp .L59
 833               	.L60:
 834               	.LM113:
 835 0350 8E8D      		ldd r24,Y+30
 836 0352 8F5F      		subi r24,lo8(-(1))
 837 0354 8E8F      		std Y+30,r24
 838               	.L61:
 839 0356 81E0      		ldi r24,lo8(1)
 840               	.LVL84:
 841               	.L59:
 842               	.LVL85:
 843               	/* epilogue start */
 844               	.LM114:
 845 0358 DF91      		pop r29
 846 035a CF91      		pop r28
 847               	.LVL86:
 848 035c 1F91      		pop r17
 849 035e 0F91      		pop r16
 850               	.LVL87:
 851 0360 0895      		ret
 852               	.LFE5:
 855               	prvUnlockQueue:
 856               	.LFB13:
 857               	.LM115:
 858               	.LVL88:
 859 0362 0F93      		push r16
 860 0364 1F93      		push r17
 861 0366 CF93      		push r28
 862 0368 DF93      		push r29
 863               	/* prologue: function */
 864               	/* frame size = 0 */
 865 036a EC01      		movw r28,r24
 866               	.LM116:
 867               	/* #APP */
 868               	 ;  1294 "../../Source/queue.c" 1
 869 036c 0FB6      		in		__tmp_reg__, __SREG__
 870               	 ;  0 "" 2
 871               	 ;  1294 "../../Source/queue.c" 1
 872 036e F894      		cli
 873               	 ;  0 "" 2
 874               	 ;  1294 "../../Source/queue.c" 1
 875 0370 0F92      		push	__tmp_reg__
 876               	 ;  0 "" 2
 877               	.LM117:
 878               	/* #NOAPP */
 879 0372 8C01      		movw r16,r24
 880 0374 0F5E      		subi r16,lo8(-(17))
 881 0376 1F4F      		sbci r17,hi8(-(17))
 882 0378 00C0      		rjmp .L64
 883               	.LVL89:
 884               	.L67:
 885               	.LM118:
 886 037a 8989      		ldd r24,Y+17
 887 037c 8823      		tst r24
 888 037e 01F0      		breq .L65
 889               	.LM119:
 890 0380 C801      		movw r24,r16
 891 0382 0E94 0000 		call xTaskRemoveFromEventList
 892 0386 8823      		tst r24
 893 0388 01F0      		breq .L66
 894               	.LM120:
 895 038a 0E94 0000 		call vTaskMissedYield
 896               	.L66:
 897               	.LM121:
 898 038e 8E8D      		ldd r24,Y+30
 899 0390 8150      		subi r24,lo8(-(-1))
 900 0392 8E8F      		std Y+30,r24
 901               	.LVL90:
 902               	.L64:
 903               	.LM122:
 904 0394 8E8D      		ldd r24,Y+30
 905 0396 1816      		cp __zero_reg__,r24
 906 0398 04F0      		brlt .L67
 907               	.L65:
 908               	.LM123:
 909 039a 8FEF      		ldi r24,lo8(-1)
 910 039c 8E8F      		std Y+30,r24
 911               	.LM124:
 912               	/* #APP */
 913               	 ;  1322 "../../Source/queue.c" 1
 914 039e 0F90      		pop		__tmp_reg__
 915               	 ;  0 "" 2
 916               	 ;  1322 "../../Source/queue.c" 1
 917 03a0 0FBE      		out		__SREG__, __tmp_reg__
 918               	 ;  0 "" 2
 919               	.LM125:
 920               	 ;  1325 "../../Source/queue.c" 1
 921 03a2 0FB6      		in		__tmp_reg__, __SREG__
 922               	 ;  0 "" 2
 923               	 ;  1325 "../../Source/queue.c" 1
 924 03a4 F894      		cli
 925               	 ;  0 "" 2
 926               	 ;  1325 "../../Source/queue.c" 1
 927 03a6 0F92      		push	__tmp_reg__
 928               	 ;  0 "" 2
 929               	.LM126:
 930               	/* #NOAPP */
 931 03a8 8E01      		movw r16,r28
 932 03aa 085F      		subi r16,lo8(-(8))
 933 03ac 1F4F      		sbci r17,hi8(-(8))
 934 03ae 00C0      		rjmp .L68
 935               	.L71:
 936               	.LM127:
 937 03b0 8885      		ldd r24,Y+8
 938 03b2 8823      		tst r24
 939 03b4 01F0      		breq .L69
 940               	.LM128:
 941 03b6 C801      		movw r24,r16
 942 03b8 0E94 0000 		call xTaskRemoveFromEventList
 943 03bc 8823      		tst r24
 944 03be 01F0      		breq .L70
 945               	.LM129:
 946 03c0 0E94 0000 		call vTaskMissedYield
 947               	.L70:
 948               	.LM130:
 949 03c4 8D8D      		ldd r24,Y+29
 950 03c6 8150      		subi r24,lo8(-(-1))
 951 03c8 8D8F      		std Y+29,r24
 952               	.L68:
 953               	.LM131:
 954 03ca 8D8D      		ldd r24,Y+29
 955 03cc 1816      		cp __zero_reg__,r24
 956 03ce 04F0      		brlt .L71
 957               	.L69:
 958               	.LM132:
 959 03d0 8FEF      		ldi r24,lo8(-1)
 960 03d2 8D8F      		std Y+29,r24
 961               	.LM133:
 962               	/* #APP */
 963               	 ;  1346 "../../Source/queue.c" 1
 964 03d4 0F90      		pop		__tmp_reg__
 965               	 ;  0 "" 2
 966               	 ;  1346 "../../Source/queue.c" 1
 967 03d6 0FBE      		out		__SREG__, __tmp_reg__
 968               	 ;  0 "" 2
 969               	/* epilogue start */
 970               	.LM134:
 971               	/* #NOAPP */
 972 03d8 DF91      		pop r29
 973 03da CF91      		pop r28
 974               	.LVL91:
 975 03dc 1F91      		pop r17
 976 03de 0F91      		pop r16
 977 03e0 0895      		ret
 978               	.LFE13:
 980               	.global	xQueueGenericReceive
 982               	xQueueGenericReceive:
 983               	.LFB6:
 984               	.LM135:
 985               	.LVL92:
 986 03e2 7F92      		push r7
 987 03e4 8F92      		push r8
 988 03e6 9F92      		push r9
 989 03e8 AF92      		push r10
 990 03ea BF92      		push r11
 991 03ec CF92      		push r12
 992 03ee DF92      		push r13
 993 03f0 EF92      		push r14
 994 03f2 FF92      		push r15
 995 03f4 0F93      		push r16
 996 03f6 1F93      		push r17
 997 03f8 DF93      		push r29
 998 03fa CF93      		push r28
 999 03fc 00D0      		rcall .
 1000 03fe 00D0      		rcall .
 1001 0400 0F92      		push __tmp_reg__
 1002 0402 CDB7      		in r28,__SP_L__
 1003 0404 DEB7      		in r29,__SP_H__
 1004               	/* prologue: function */
 1005               	/* frame size = 5 */
 1006 0406 8C01      		movw r16,r24
 1007 0408 962E      		mov r9,r22
 1008 040a 872E      		mov r8,r23
 1009               	.LVL93:
 1010 040c 5D83      		std Y+5,r21
 1011 040e 4C83      		std Y+4,r20
 1012 0410 722E      		mov r7,r18
 1013               	.LM136:
 1014 0412 91E1      		ldi r25,lo8(17)
 1015 0414 C92E      		mov r12,r25
 1016 0416 D12C      		mov r13,__zero_reg__
 1017 0418 C00E      		add r12,r16
 1018 041a D11E      		adc r13,r17
 1019 041c 20E0      		ldi r18,lo8(0)
 1020               	.LVL94:
 1021               	.LM137:
 1022 041e 7E01      		movw r14,r28
 1023 0420 0894      		sec
 1024 0422 E11C      		adc r14,__zero_reg__
 1025 0424 F11C      		adc r15,__zero_reg__
 1026               	.LM138:
 1027 0426 84E0      		ldi r24,lo8(4)
 1028 0428 A82E      		mov r10,r24
 1029 042a B12C      		mov r11,__zero_reg__
 1030               	.LVL95:
 1031 042c AC0E      		add r10,r28
 1032 042e BD1E      		adc r11,r29
 1033 0430 00C0      		rjmp .L74
 1034               	.LVL96:
 1035               	.L88:
 1036               	.LM139:
 1037 0432 21E0      		ldi r18,lo8(1)
 1038               	.LVL97:
 1039               	.L74:
 1040               	.LM140:
 1041               	/* #APP */
 1042               	 ;  976 "../../Source/queue.c" 1
 1043 0434 0FB6      		in		__tmp_reg__, __SREG__
 1044               	 ;  0 "" 2
 1045               	 ;  976 "../../Source/queue.c" 1
 1046 0436 F894      		cli
 1047               	 ;  0 "" 2
 1048               	 ;  976 "../../Source/queue.c" 1
 1049 0438 0F92      		push	__tmp_reg__
 1050               	 ;  0 "" 2
 1051               	.LM141:
 1052               	/* #NOAPP */
 1053 043a F801      		movw r30,r16
 1054 043c 828D      		ldd r24,Z+26
 1055 043e 8823      		tst r24
 1056 0440 01F4      		brne .+2
 1057 0442 00C0      		rjmp .L75
 1058               	.LM142:
 1059 0444 E680      		ldd r14,Z+6
 1060 0446 F780      		ldd r15,Z+7
 1061               	.LVL98:
 1062               	.LBB16:
 1063               	.LBB17:
 1064               	.LM143:
 1065 0448 4081      		ld r20,Z
 1066 044a 5181      		ldd r21,Z+1
 1067 044c 4115      		cp r20,__zero_reg__
 1068 044e 5105      		cpc r21,__zero_reg__
 1069 0450 01F0      		breq .L76
 1070               	.LM144:
 1071 0452 848D      		ldd r24,Z+28
 1072 0454 9701      		movw r18,r14
 1073               	.LVL99:
 1074 0456 280F      		add r18,r24
 1075 0458 311D      		adc r19,__zero_reg__
 1076 045a 3783      		std Z+7,r19
 1077 045c 2683      		std Z+6,r18
 1078               	.LM145:
 1079 045e 8281      		ldd r24,Z+2
 1080 0460 9381      		ldd r25,Z+3
 1081 0462 2817      		cp r18,r24
 1082 0464 3907      		cpc r19,r25
 1083 0466 00F0      		brlo .L77
 1084               	.LM146:
 1085 0468 5783      		std Z+7,r21
 1086 046a 4683      		std Z+6,r20
 1087               	.L77:
 1088               	.LM147:
 1089 046c F801      		movw r30,r16
 1090 046e 448D      		ldd r20,Z+28
 1091 0470 6681      		ldd r22,Z+6
 1092 0472 7781      		ldd r23,Z+7
 1093 0474 892D      		mov r24,r9
 1094 0476 982D      		mov r25,r8
 1095 0478 50E0      		ldi r21,lo8(0)
 1096 047a 0E94 0000 		call memcpy
 1097               	.LVL100:
 1098               	.L76:
 1099               	.LBE17:
 1100               	.LBE16:
 1101               	.LM148:
 1102 047e 7720      		tst r7
 1103 0480 01F4      		brne .L79
 1104               	.LM149:
 1105 0482 F801      		movw r30,r16
 1106 0484 828D      		ldd r24,Z+26
 1107 0486 8150      		subi r24,lo8(-(-1))
 1108 0488 828F      		std Z+26,r24
 1109               	.LM150:
 1110 048a 8085      		ldd r24,Z+8
 1111 048c 8823      		tst r24
 1112 048e 01F0      		breq .L80
 1113               	.LM151:
 1114 0490 C801      		movw r24,r16
 1115 0492 0896      		adiw r24,8
 1116 0494 0E94 0000 		call xTaskRemoveFromEventList
 1117               	.LVL101:
 1118 0498 8130      		cpi r24,lo8(1)
 1119 049a 01F4      		brne .L80
 1120 049c 00C0      		rjmp .L90
 1121               	.LVL102:
 1122               	.L79:
 1123               	.LM152:
 1124 049e F801      		movw r30,r16
 1125 04a0 F782      		std Z+7,r15
 1126 04a2 E682      		std Z+6,r14
 1127               	.LM153:
 1128 04a4 8189      		ldd r24,Z+17
 1129 04a6 8823      		tst r24
 1130 04a8 01F0      		breq .L80
 1131               	.LM154:
 1132 04aa C601      		movw r24,r12
 1133 04ac 0E94 0000 		call xTaskRemoveFromEventList
 1134               	.LVL103:
 1135 04b0 8823      		tst r24
 1136 04b2 01F0      		breq .L80
 1137               	.L90:
 1138               	.LM155:
 1139 04b4 0E94 0000 		call vPortYield
 1140               	.LVL104:
 1141               	.L80:
 1142               	.LM156:
 1143               	/* #APP */
 1144               	 ;  1035 "../../Source/queue.c" 1
 1145 04b8 0F90      		pop		__tmp_reg__
 1146               	 ;  0 "" 2
 1147               	 ;  1035 "../../Source/queue.c" 1
 1148 04ba 0FBE      		out		__SREG__, __tmp_reg__
 1149               	 ;  0 "" 2
 1150               	/* #NOAPP */
 1151 04bc 81E0      		ldi r24,lo8(1)
 1152 04be 00C0      		rjmp .L81
 1153               	.LVL105:
 1154               	.L75:
 1155               	.LM157:
 1156 04c0 8C81      		ldd r24,Y+4
 1157 04c2 9D81      		ldd r25,Y+5
 1158 04c4 892B      		or r24,r25
 1159 04c6 01F4      		brne .L82
 1160               	.LVL106:
 1161               	.LM158:
 1162               	/* #APP */
 1163               	 ;  1044 "../../Source/queue.c" 1
 1164 04c8 0F90      		pop		__tmp_reg__
 1165               	 ;  0 "" 2
 1166               	 ;  1044 "../../Source/queue.c" 1
 1167 04ca 0FBE      		out		__SREG__, __tmp_reg__
 1168               	 ;  0 "" 2
 1169               	/* #NOAPP */
 1170 04cc 00C0      		rjmp .L91
 1171               	.L82:
 1172               	.LM159:
 1173 04ce 2223      		tst r18
 1174 04d0 01F4      		brne .L83
 1175               	.LM160:
 1176 04d2 C701      		movw r24,r14
 1177               	.LVL107:
 1178 04d4 0E94 0000 		call vTaskSetTimeOutState
 1179               	.LVL108:
 1180               	.L83:
 1181               	.LM161:
 1182               	/* #APP */
 1183               	 ;  1057 "../../Source/queue.c" 1
 1184 04d8 0F90      		pop		__tmp_reg__
 1185               	 ;  0 "" 2
 1186               	 ;  1057 "../../Source/queue.c" 1
 1187 04da 0FBE      		out		__SREG__, __tmp_reg__
 1188               	 ;  0 "" 2
 1189               	.LM162:
 1190               	/* #NOAPP */
 1191 04dc 0E94 0000 		call vTaskSuspendAll
 1192               	.LVL109:
 1193               	.LM163:
 1194               	/* #APP */
 1195               	 ;  1063 "../../Source/queue.c" 1
 1196 04e0 0FB6      		in		__tmp_reg__, __SREG__
 1197               	 ;  0 "" 2
 1198               	 ;  1063 "../../Source/queue.c" 1
 1199 04e2 F894      		cli
 1200               	 ;  0 "" 2
 1201               	 ;  1063 "../../Source/queue.c" 1
 1202 04e4 0F92      		push	__tmp_reg__
 1203               	 ;  0 "" 2
 1204               	/* #NOAPP */
 1205 04e6 F801      		movw r30,r16
 1206 04e8 858D      		ldd r24,Z+29
 1207 04ea 8F3F      		cpi r24,lo8(-1)
 1208 04ec 01F4      		brne .L84
 1209 04ee 158E      		std Z+29,__zero_reg__
 1210               	.L84:
 1211 04f0 F801      		movw r30,r16
 1212 04f2 868D      		ldd r24,Z+30
 1213 04f4 8F3F      		cpi r24,lo8(-1)
 1214 04f6 01F4      		brne .L85
 1215 04f8 168E      		std Z+30,__zero_reg__
 1216               	.L85:
 1217               	/* #APP */
 1218               	 ;  1063 "../../Source/queue.c" 1
 1219 04fa 0F90      		pop		__tmp_reg__
 1220               	 ;  0 "" 2
 1221               	 ;  1063 "../../Source/queue.c" 1
 1222 04fc 0FBE      		out		__SREG__, __tmp_reg__
 1223               	 ;  0 "" 2
 1224               	.LM164:
 1225               	/* #NOAPP */
 1226 04fe C701      		movw r24,r14
 1227 0500 B501      		movw r22,r10
 1228 0502 0E94 0000 		call xTaskCheckForTimeOut
 1229 0506 8823      		tst r24
 1230 0508 01F4      		brne .L86
 1231               	.LBB18:
 1232               	.LBB19:
 1233               	.LM165:
 1234               	/* #APP */
 1235               	 ;  1354 "../../Source/queue.c" 1
 1236 050a 0FB6      		in		__tmp_reg__, __SREG__
 1237               	 ;  0 "" 2
 1238               	 ;  1354 "../../Source/queue.c" 1
 1239 050c F894      		cli
 1240               	 ;  0 "" 2
 1241               	 ;  1354 "../../Source/queue.c" 1
 1242 050e 0F92      		push	__tmp_reg__
 1243               	 ;  0 "" 2
 1244               	.LM166:
 1245               	/* #NOAPP */
 1246 0510 F801      		movw r30,r16
 1247 0512 828D      		ldd r24,Z+26
 1248               	.LM167:
 1249               	/* #APP */
 1250               	 ;  1356 "../../Source/queue.c" 1
 1251 0514 0F90      		pop		__tmp_reg__
 1252               	 ;  0 "" 2
 1253               	 ;  1356 "../../Source/queue.c" 1
 1254 0516 0FBE      		out		__SREG__, __tmp_reg__
 1255               	 ;  0 "" 2
 1256               	/* #NOAPP */
 1257               	.LBE19:
 1258               	.LBE18:
 1259               	.LM168:
 1260 0518 8823      		tst r24
 1261 051a 01F4      		brne .L87
 1262               	.LM169:
 1263 051c 6C81      		ldd r22,Y+4
 1264 051e 7D81      		ldd r23,Y+5
 1265 0520 C601      		movw r24,r12
 1266 0522 0E94 0000 		call vTaskPlaceOnEventList
 1267               	.LM170:
 1268 0526 C801      		movw r24,r16
 1269 0528 0E94 0000 		call prvUnlockQueue
 1270               	.LM171:
 1271 052c 0E94 0000 		call xTaskResumeAll
 1272 0530 8823      		tst r24
 1273 0532 01F0      		breq .+2
 1274 0534 00C0      		rjmp .L88
 1275               	.LM172:
 1276 0536 0E94 0000 		call vPortYield
 1277 053a 00C0      		rjmp .L88
 1278               	.L87:
 1279               	.LM173:
 1280 053c C801      		movw r24,r16
 1281 053e 0E94 0000 		call prvUnlockQueue
 1282               	.LM174:
 1283 0542 0E94 0000 		call xTaskResumeAll
 1284 0546 00C0      		rjmp .L88
 1285               	.L86:
 1286               	.LM175:
 1287 0548 C801      		movw r24,r16
 1288 054a 0E94 0000 		call prvUnlockQueue
 1289               	.LM176:
 1290 054e 0E94 0000 		call xTaskResumeAll
 1291               	.LVL110:
 1292               	.L91:
 1293 0552 80E0      		ldi r24,lo8(0)
 1294               	.LVL111:
 1295               	.L81:
 1296               	/* epilogue start */
 1297               	.LM177:
 1298 0554 0F90      		pop __tmp_reg__
 1299 0556 0F90      		pop __tmp_reg__
 1300 0558 0F90      		pop __tmp_reg__
 1301 055a 0F90      		pop __tmp_reg__
 1302 055c 0F90      		pop __tmp_reg__
 1303 055e CF91      		pop r28
 1304 0560 DF91      		pop r29
 1305 0562 1F91      		pop r17
 1306 0564 0F91      		pop r16
 1307               	.LVL112:
 1308 0566 FF90      		pop r15
 1309 0568 EF90      		pop r14
 1310               	.LVL113:
 1311 056a DF90      		pop r13
 1312 056c CF90      		pop r12
 1313 056e BF90      		pop r11
 1314 0570 AF90      		pop r10
 1315 0572 9F90      		pop r9
 1316               	.LVL114:
 1317 0574 8F90      		pop r8
 1318               	.LVL115:
 1319 0576 7F90      		pop r7
 1320               	.LVL116:
 1321 0578 0895      		ret
 1322               	.LFE6:
 1324               	.global	xQueueGenericSend
 1326               	xQueueGenericSend:
 1327               	.LFB4:
 1328               	.LM178:
 1329               	.LVL117:
 1330 057a 7F92      		push r7
 1331 057c 8F92      		push r8
 1332 057e 9F92      		push r9
 1333 0580 AF92      		push r10
 1334 0582 BF92      		push r11
 1335 0584 CF92      		push r12
 1336 0586 DF92      		push r13
 1337 0588 EF92      		push r14
 1338 058a FF92      		push r15
 1339 058c 0F93      		push r16
 1340 058e 1F93      		push r17
 1341 0590 DF93      		push r29
 1342 0592 CF93      		push r28
 1343 0594 00D0      		rcall .
 1344 0596 00D0      		rcall .
 1345 0598 0F92      		push __tmp_reg__
 1346 059a CDB7      		in r28,__SP_L__
 1347 059c DEB7      		in r29,__SP_H__
 1348               	/* prologue: function */
 1349               	/* frame size = 5 */
 1350 059e 8C01      		movw r16,r24
 1351 05a0 6B01      		movw r12,r22
 1352 05a2 5D83      		std Y+5,r21
 1353 05a4 4C83      		std Y+4,r20
 1354 05a6 722E      		mov r7,r18
 1355               	.LM179:
 1356 05a8 48E0      		ldi r20,lo8(8)
 1357 05aa E42E      		mov r14,r20
 1358 05ac F12C      		mov r15,__zero_reg__
 1359               	.LVL118:
 1360 05ae E80E      		add r14,r24
 1361 05b0 F91E      		adc r15,r25
 1362 05b2 20E0      		ldi r18,lo8(0)
 1363               	.LVL119:
 1364               	.LM180:
 1365 05b4 5E01      		movw r10,r28
 1366 05b6 0894      		sec
 1367 05b8 A11C      		adc r10,__zero_reg__
 1368 05ba B11C      		adc r11,__zero_reg__
 1369               	.LM181:
 1370 05bc 34E0      		ldi r19,lo8(4)
 1371 05be 832E      		mov r8,r19
 1372 05c0 912C      		mov r9,__zero_reg__
 1373 05c2 8C0E      		add r8,r28
 1374 05c4 9D1E      		adc r9,r29
 1375 05c6 00C0      		rjmp .L93
 1376               	.LVL120:
 1377               	.L103:
 1378               	.LM182:
 1379 05c8 21E0      		ldi r18,lo8(1)
 1380               	.LVL121:
 1381               	.L93:
 1382               	.LM183:
 1383               	/* #APP */
 1384               	 ;  590 "../../Source/queue.c" 1
 1385 05ca 0FB6      		in		__tmp_reg__, __SREG__
 1386               	 ;  0 "" 2
 1387               	 ;  590 "../../Source/queue.c" 1
 1388 05cc F894      		cli
 1389               	 ;  0 "" 2
 1390               	 ;  590 "../../Source/queue.c" 1
 1391 05ce 0F92      		push	__tmp_reg__
 1392               	 ;  0 "" 2
 1393               	.LM184:
 1394               	/* #NOAPP */
 1395 05d0 F801      		movw r30,r16
 1396 05d2 928D      		ldd r25,Z+26
 1397 05d4 838D      		ldd r24,Z+27
 1398 05d6 9817      		cp r25,r24
 1399 05d8 00F4      		brsh .L94
 1400               	.LM185:
 1401 05da C801      		movw r24,r16
 1402 05dc B601      		movw r22,r12
 1403 05de 472D      		mov r20,r7
 1404 05e0 0E94 0000 		call prvCopyDataToQueue
 1405               	.LVL122:
 1406               	.LM186:
 1407 05e4 F801      		movw r30,r16
 1408 05e6 8189      		ldd r24,Z+17
 1409 05e8 8823      		tst r24
 1410 05ea 01F0      		breq .L95
 1411               	.LM187:
 1412 05ec C801      		movw r24,r16
 1413 05ee 4196      		adiw r24,17
 1414 05f0 0E94 0000 		call xTaskRemoveFromEventList
 1415 05f4 8130      		cpi r24,lo8(1)
 1416 05f6 01F4      		brne .L95
 1417               	.LM188:
 1418 05f8 0E94 0000 		call vPortYield
 1419               	.L95:
 1420               	.LM189:
 1421               	/* #APP */
 1422               	 ;  613 "../../Source/queue.c" 1
 1423 05fc 0F90      		pop		__tmp_reg__
 1424               	 ;  0 "" 2
 1425               	 ;  613 "../../Source/queue.c" 1
 1426 05fe 0FBE      		out		__SREG__, __tmp_reg__
 1427               	 ;  0 "" 2
 1428               	/* #NOAPP */
 1429 0600 81E0      		ldi r24,lo8(1)
 1430 0602 00C0      		rjmp .L96
 1431               	.LVL123:
 1432               	.L94:
 1433               	.LM190:
 1434 0604 8C81      		ldd r24,Y+4
 1435 0606 9D81      		ldd r25,Y+5
 1436 0608 892B      		or r24,r25
 1437 060a 01F4      		brne .L97
 1438               	.LVL124:
 1439               	.LM191:
 1440               	/* #APP */
 1441               	 ;  625 "../../Source/queue.c" 1
 1442 060c 0F90      		pop		__tmp_reg__
 1443               	 ;  0 "" 2
 1444               	 ;  625 "../../Source/queue.c" 1
 1445 060e 0FBE      		out		__SREG__, __tmp_reg__
 1446               	 ;  0 "" 2
 1447               	/* #NOAPP */
 1448 0610 00C0      		rjmp .L105
 1449               	.L97:
 1450               	.LM192:
 1451 0612 2223      		tst r18
 1452 0614 01F4      		brne .L98
 1453               	.LM193:
 1454 0616 C501      		movw r24,r10
 1455               	.LVL125:
 1456 0618 0E94 0000 		call vTaskSetTimeOutState
 1457               	.LVL126:
 1458               	.L98:
 1459               	.LM194:
 1460               	/* #APP */
 1461               	 ;  641 "../../Source/queue.c" 1
 1462 061c 0F90      		pop		__tmp_reg__
 1463               	 ;  0 "" 2
 1464               	 ;  641 "../../Source/queue.c" 1
 1465 061e 0FBE      		out		__SREG__, __tmp_reg__
 1466               	 ;  0 "" 2
 1467               	.LM195:
 1468               	/* #NOAPP */
 1469 0620 0E94 0000 		call vTaskSuspendAll
 1470               	.LVL127:
 1471               	.LM196:
 1472               	/* #APP */
 1473               	 ;  647 "../../Source/queue.c" 1
 1474 0624 0FB6      		in		__tmp_reg__, __SREG__
 1475               	 ;  0 "" 2
 1476               	 ;  647 "../../Source/queue.c" 1
 1477 0626 F894      		cli
 1478               	 ;  0 "" 2
 1479               	 ;  647 "../../Source/queue.c" 1
 1480 0628 0F92      		push	__tmp_reg__
 1481               	 ;  0 "" 2
 1482               	/* #NOAPP */
 1483 062a F801      		movw r30,r16
 1484 062c 858D      		ldd r24,Z+29
 1485 062e 8F3F      		cpi r24,lo8(-1)
 1486 0630 01F4      		brne .L99
 1487 0632 158E      		std Z+29,__zero_reg__
 1488               	.L99:
 1489 0634 F801      		movw r30,r16
 1490 0636 868D      		ldd r24,Z+30
 1491 0638 8F3F      		cpi r24,lo8(-1)
 1492 063a 01F4      		brne .L100
 1493 063c 168E      		std Z+30,__zero_reg__
 1494               	.L100:
 1495               	/* #APP */
 1496               	 ;  647 "../../Source/queue.c" 1
 1497 063e 0F90      		pop		__tmp_reg__
 1498               	 ;  0 "" 2
 1499               	 ;  647 "../../Source/queue.c" 1
 1500 0640 0FBE      		out		__SREG__, __tmp_reg__
 1501               	 ;  0 "" 2
 1502               	.LM197:
 1503               	/* #NOAPP */
 1504 0642 C501      		movw r24,r10
 1505 0644 B401      		movw r22,r8
 1506 0646 0E94 0000 		call xTaskCheckForTimeOut
 1507 064a 8823      		tst r24
 1508 064c 01F4      		brne .L101
 1509               	.LBB20:
 1510               	.LBB21:
 1511               	.LM198:
 1512               	/* #APP */
 1513               	 ;  1377 "../../Source/queue.c" 1
 1514 064e 0FB6      		in		__tmp_reg__, __SREG__
 1515               	 ;  0 "" 2
 1516               	 ;  1377 "../../Source/queue.c" 1
 1517 0650 F894      		cli
 1518               	 ;  0 "" 2
 1519               	 ;  1377 "../../Source/queue.c" 1
 1520 0652 0F92      		push	__tmp_reg__
 1521               	 ;  0 "" 2
 1522               	.LM199:
 1523               	/* #NOAPP */
 1524 0654 F801      		movw r30,r16
 1525 0656 928D      		ldd r25,Z+26
 1526               	.LM200:
 1527               	/* #APP */
 1528               	 ;  1379 "../../Source/queue.c" 1
 1529 0658 0F90      		pop		__tmp_reg__
 1530               	 ;  0 "" 2
 1531               	 ;  1379 "../../Source/queue.c" 1
 1532 065a 0FBE      		out		__SREG__, __tmp_reg__
 1533               	 ;  0 "" 2
 1534               	/* #NOAPP */
 1535               	.LBE21:
 1536               	.LBE20:
 1537               	.LM201:
 1538 065c F801      		movw r30,r16
 1539 065e 838D      		ldd r24,Z+27
 1540 0660 9817      		cp r25,r24
 1541 0662 01F4      		brne .L102
 1542               	.LM202:
 1543 0664 6C81      		ldd r22,Y+4
 1544 0666 7D81      		ldd r23,Y+5
 1545 0668 C701      		movw r24,r14
 1546 066a 0E94 0000 		call vTaskPlaceOnEventList
 1547               	.LM203:
 1548 066e C801      		movw r24,r16
 1549 0670 0E94 0000 		call prvUnlockQueue
 1550               	.LM204:
 1551 0674 0E94 0000 		call xTaskResumeAll
 1552 0678 8823      		tst r24
 1553 067a 01F0      		breq .+2
 1554 067c 00C0      		rjmp .L103
 1555               	.LM205:
 1556 067e 0E94 0000 		call vPortYield
 1557 0682 00C0      		rjmp .L103
 1558               	.L102:
 1559               	.LM206:
 1560 0684 C801      		movw r24,r16
 1561 0686 0E94 0000 		call prvUnlockQueue
 1562               	.LM207:
 1563 068a 0E94 0000 		call xTaskResumeAll
 1564 068e 00C0      		rjmp .L103
 1565               	.L101:
 1566               	.LM208:
 1567 0690 C801      		movw r24,r16
 1568 0692 0E94 0000 		call prvUnlockQueue
 1569               	.LM209:
 1570 0696 0E94 0000 		call xTaskResumeAll
 1571               	.LVL128:
 1572               	.L105:
 1573 069a 80E0      		ldi r24,lo8(0)
 1574               	.L96:
 1575               	/* epilogue start */
 1576               	.LM210:
 1577 069c 0F90      		pop __tmp_reg__
 1578 069e 0F90      		pop __tmp_reg__
 1579 06a0 0F90      		pop __tmp_reg__
 1580 06a2 0F90      		pop __tmp_reg__
 1581 06a4 0F90      		pop __tmp_reg__
 1582 06a6 CF91      		pop r28
 1583 06a8 DF91      		pop r29
 1584 06aa 1F91      		pop r17
 1585 06ac 0F91      		pop r16
 1586               	.LVL129:
 1587 06ae FF90      		pop r15
 1588 06b0 EF90      		pop r14
 1589 06b2 DF90      		pop r13
 1590 06b4 CF90      		pop r12
 1591               	.LVL130:
 1592 06b6 BF90      		pop r11
 1593 06b8 AF90      		pop r10
 1594 06ba 9F90      		pop r9
 1595 06bc 8F90      		pop r8
 1596 06be 7F90      		pop r7
 1597               	.LVL131:
 1598 06c0 0895      		ret
 1599               	.LFE4:
 1601               	.global	xQueueGenericReset
 1603               	xQueueGenericReset:
 1604               	.LFB2:
 1605               	.LM211:
 1606               	.LVL132:
 1607 06c2 CF93      		push r28
 1608 06c4 DF93      		push r29
 1609               	/* prologue: function */
 1610               	/* frame size = 0 */
 1611 06c6 EC01      		movw r28,r24
 1612               	.LM212:
 1613               	/* #APP */
 1614               	 ;  283 "../../Source/queue.c" 1
 1615 06c8 0FB6      		in		__tmp_reg__, __SREG__
 1616               	 ;  0 "" 2
 1617               	 ;  283 "../../Source/queue.c" 1
 1618 06ca F894      		cli
 1619               	 ;  0 "" 2
 1620               	 ;  283 "../../Source/queue.c" 1
 1621 06cc 0F92      		push	__tmp_reg__
 1622               	 ;  0 "" 2
 1623               	.LM213:
 1624               	/* #NOAPP */
 1625 06ce EC8D      		ldd r30,Y+28
 1626 06d0 2B8D      		ldd r18,Y+27
 1627 06d2 E29F      		mul r30,r18
 1628 06d4 C001      		movw r24,r0
 1629 06d6 1124      		clr r1
 1630               	.LVL133:
 1631 06d8 4881      		ld r20,Y
 1632 06da 5981      		ldd r21,Y+1
 1633 06dc 840F      		add r24,r20
 1634 06de 951F      		adc r25,r21
 1635 06e0 9B83      		std Y+3,r25
 1636 06e2 8A83      		std Y+2,r24
 1637               	.LM214:
 1638 06e4 1A8E      		std Y+26,__zero_reg__
 1639               	.LM215:
 1640 06e6 5D83      		std Y+5,r21
 1641 06e8 4C83      		std Y+4,r20
 1642               	.LM216:
 1643 06ea 30E0      		ldi r19,lo8(0)
 1644 06ec 2150      		subi r18,lo8(-(-1))
 1645 06ee 3040      		sbci r19,hi8(-(-1))
 1646 06f0 F0E0      		ldi r31,lo8(0)
 1647 06f2 2E9F      		mul r18,r30
 1648 06f4 C001      		movw r24,r0
 1649 06f6 2F9F      		mul r18,r31
 1650 06f8 900D      		add r25,r0
 1651 06fa 3E9F      		mul r19,r30
 1652 06fc 900D      		add r25,r0
 1653 06fe 1124      		clr r1
 1654 0700 480F      		add r20,r24
 1655 0702 591F      		adc r21,r25
 1656 0704 5F83      		std Y+7,r21
 1657 0706 4E83      		std Y+6,r20
 1658               	.LM217:
 1659 0708 8FEF      		ldi r24,lo8(-1)
 1660 070a 8D8F      		std Y+29,r24
 1661               	.LM218:
 1662 070c 8E8F      		std Y+30,r24
 1663               	.LM219:
 1664 070e 6623      		tst r22
 1665 0710 01F4      		brne .L107
 1666               	.LM220:
 1667 0712 8885      		ldd r24,Y+8
 1668 0714 8823      		tst r24
 1669 0716 01F0      		breq .L108
 1670               	.LM221:
 1671 0718 CE01      		movw r24,r28
 1672 071a 0896      		adiw r24,8
 1673 071c 0E94 0000 		call xTaskRemoveFromEventList
 1674               	.LVL134:
 1675 0720 8130      		cpi r24,lo8(1)
 1676 0722 01F4      		brne .L108
 1677               	.LM222:
 1678 0724 0E94 0000 		call vPortYield
 1679 0728 00C0      		rjmp .L108
 1680               	.LVL135:
 1681               	.L107:
 1682               	.LM223:
 1683 072a CE01      		movw r24,r28
 1684 072c 0896      		adiw r24,8
 1685 072e 0E94 0000 		call vListInitialise
 1686               	.LVL136:
 1687               	.LM224:
 1688 0732 CE01      		movw r24,r28
 1689 0734 4196      		adiw r24,17
 1690 0736 0E94 0000 		call vListInitialise
 1691               	.LVL137:
 1692               	.L108:
 1693               	.LM225:
 1694               	/* #APP */
 1695               	 ;  314 "../../Source/queue.c" 1
 1696 073a 0F90      		pop		__tmp_reg__
 1697               	 ;  0 "" 2
 1698               	 ;  314 "../../Source/queue.c" 1
 1699 073c 0FBE      		out		__SREG__, __tmp_reg__
 1700               	 ;  0 "" 2
 1701               	.LM226:
 1702               	/* #NOAPP */
 1703 073e 81E0      		ldi r24,lo8(1)
 1704               	/* epilogue start */
 1705 0740 DF91      		pop r29
 1706 0742 CF91      		pop r28
 1707               	.LVL138:
 1708 0744 0895      		ret
 1709               	.LFE2:
 1711               	.global	xQueueGenericCreate
 1713               	xQueueGenericCreate:
 1714               	.LFB3:
 1715               	.LM227:
 1716               	.LVL139:
 1717 0746 0F93      		push r16
 1718 0748 1F93      		push r17
 1719 074a CF93      		push r28
 1720 074c DF93      		push r29
 1721               	/* prologue: function */
 1722               	/* frame size = 0 */
 1723 074e 182F      		mov r17,r24
 1724 0750 062F      		mov r16,r22
 1725               	.LM228:
 1726 0752 8823      		tst r24
 1727 0754 01F0      		breq .L111
 1728               	.LVL140:
 1729               	.LM229:
 1730 0756 8FE1      		ldi r24,lo8(31)
 1731 0758 90E0      		ldi r25,hi8(31)
 1732               	.LVL141:
 1733 075a 0E94 0000 		call pvPortMalloc
 1734               	.LVL142:
 1735 075e EC01      		movw r28,r24
 1736               	.LM230:
 1737 0760 0097      		sbiw r24,0
 1738               	.LVL143:
 1739 0762 01F0      		breq .L111
 1740               	.LM231:
 1741 0764 019F      		mul r16,r17
 1742 0766 C001      		movw r24,r0
 1743 0768 1124      		clr r1
 1744               	.LVL144:
 1745 076a 0196      		adiw r24,1
 1746 076c 0E94 0000 		call pvPortMalloc
 1747 0770 9983      		std Y+1,r25
 1748 0772 8883      		st Y,r24
 1749               	.LVL145:
 1750               	.LM232:
 1751 0774 0097      		sbiw r24,0
 1752 0776 01F0      		breq .L112
 1753               	.LM233:
 1754 0778 1B8F      		std Y+27,r17
 1755               	.LM234:
 1756 077a 0C8F      		std Y+28,r16
 1757               	.LM235:
 1758 077c CE01      		movw r24,r28
 1759 077e 61E0      		ldi r22,lo8(1)
 1760 0780 0E94 0000 		call xQueueGenericReset
 1761 0784 9E01      		movw r18,r28
 1762               	.LVL146:
 1763 0786 00C0      		rjmp .L113
 1764               	.LVL147:
 1765               	.L112:
 1766               	.LM236:
 1767 0788 CE01      		movw r24,r28
 1768 078a 0E94 0000 		call vPortFree
 1769               	.LVL148:
 1770               	.L111:
 1771 078e 20E0      		ldi r18,lo8(0)
 1772 0790 30E0      		ldi r19,hi8(0)
 1773               	.LVL149:
 1774               	.L113:
 1775               	.LM237:
 1776 0792 C901      		movw r24,r18
 1777               	.LVL150:
 1778               	/* epilogue start */
 1779 0794 DF91      		pop r29
 1780 0796 CF91      		pop r28
 1781               	.LVL151:
 1782 0798 1F91      		pop r17
 1783               	.LVL152:
 1784 079a 0F91      		pop r16
 1785               	.LVL153:
 1786 079c 0895      		ret
 1787               	.LFE3:
 1941               	.Letext0:
DEFINED SYMBOLS
                            *ABS*:00000000 queue.c
C:\Users\mohammad\AppData\Local\Temp/cc6i1JlU.s:2      *ABS*:0000003f __SREG__
C:\Users\mohammad\AppData\Local\Temp/cc6i1JlU.s:3      *ABS*:0000003e __SP_H__
C:\Users\mohammad\AppData\Local\Temp/cc6i1JlU.s:4      *ABS*:0000003d __SP_L__
C:\Users\mohammad\AppData\Local\Temp/cc6i1JlU.s:5      *ABS*:00000034 __CCP__
C:\Users\mohammad\AppData\Local\Temp/cc6i1JlU.s:6      *ABS*:00000000 __tmp_reg__
C:\Users\mohammad\AppData\Local\Temp/cc6i1JlU.s:7      *ABS*:00000001 __zero_reg__
C:\Users\mohammad\AppData\Local\Temp/cc6i1JlU.s:18     .text:00000000 uxQueueMessagesWaiting
C:\Users\mohammad\AppData\Local\Temp/cc6i1JlU.s:57     .text:00000010 uxQueueMessagesWaitingFromISR
C:\Users\mohammad\AppData\Local\Temp/cc6i1JlU.s:75     .text:00000016 xQueueIsQueueEmptyFromISR
C:\Users\mohammad\AppData\Local\Temp/cc6i1JlU.s:98     .text:00000026 xQueueIsQueueFullFromISR
C:\Users\mohammad\AppData\Local\Temp/cc6i1JlU.s:121    .text:00000038 prvCopyDataToQueue
C:\Users\mohammad\AppData\Local\Temp/cc6i1JlU.s:219    .text:000000ba xQueueCRReceiveFromISR
C:\Users\mohammad\AppData\Local\Temp/cc6i1JlU.s:308    .text:00000130 xQueueCRSendFromISR
C:\Users\mohammad\AppData\Local\Temp/cc6i1JlU.s:362    .text:0000016e xQueueCRReceive
C:\Users\mohammad\AppData\Local\Temp/cc6i1JlU.s:502    .text:000001fa xQueueCRSend
C:\Users\mohammad\AppData\Local\Temp/cc6i1JlU.s:647    .text:00000268 vQueueDelete
C:\Users\mohammad\AppData\Local\Temp/cc6i1JlU.s:675    .text:00000284 xQueueReceiveFromISR
C:\Users\mohammad\AppData\Local\Temp/cc6i1JlU.s:781    .text:0000030a xQueueGenericSendFromISR
C:\Users\mohammad\AppData\Local\Temp/cc6i1JlU.s:855    .text:00000362 prvUnlockQueue
C:\Users\mohammad\AppData\Local\Temp/cc6i1JlU.s:982    .text:000003e2 xQueueGenericReceive
C:\Users\mohammad\AppData\Local\Temp/cc6i1JlU.s:1326   .text:0000057a xQueueGenericSend
C:\Users\mohammad\AppData\Local\Temp/cc6i1JlU.s:1603   .text:000006c2 xQueueGenericReset
C:\Users\mohammad\AppData\Local\Temp/cc6i1JlU.s:1713   .text:00000746 xQueueGenericCreate

UNDEFINED SYMBOLS
memcpy
xCoRoutineRemoveFromEventList
vCoRoutineAddToDelayedList
vPortFree
xTaskRemoveFromEventList
vTaskMissedYield
vPortYield
vTaskSetTimeOutState
vTaskSuspendAll
xTaskCheckForTimeOut
vTaskPlaceOnEventList
xTaskResumeAll
vListInitialise
pvPortMalloc
